target datalayout = "e-m:e-p270:32:32-p271:32:32-p272:64:64-i64:64-i128:128-f80:128-n8:16:32:64-S128"
target triple = "x86_64-unknown-linux-gnu"

%struct.CoroutineQSList = type { ptr }
%struct.Coroutine = type { ptr, ptr, ptr, %struct.anon.1, i64, ptr, ptr, %struct.anon.2, %struct.anon.3, %struct.anon.4 }
%struct.anon.1 = type { ptr }
%struct.anon.2 = type { ptr }
%struct.anon.3 = type { ptr, ptr }
%struct.anon.4 = type { ptr }

@co_tls_alloc_pool = internal thread_local global %struct.CoroutineQSList zeroinitializer, align 8

; Function Attrs: nounwind sspstrong uwtable
define internal ptr @get_ptr_alloc_pool() #0 {
entry:
  %ptr = alloca ptr, align 8
  %0 = call align 8 ptr @llvm.threadlocal.address.p0(ptr align 8 @co_tls_alloc_pool)
  store ptr %0, ptr %ptr, align 8
  %1 = load ptr, ptr %ptr, align 8
  call void asm sideeffect "", "=*rm,0,~{dirflag},~{fpsr},~{flags}"(ptr elementtype(ptr) %ptr, ptr %1) #7, !srcloc !5
  %2 = load ptr, ptr %ptr, align 8
  ret ptr %2
}

; Function Attrs: nounwind sspstrong uwtable
define internal void @coroutine_pool_cleanup(ptr noundef %n, ptr noundef %value) #0 {
entry:
  %n.addr = alloca ptr, align 8
  %value.addr = alloca ptr, align 8
  %co = alloca ptr, align 8
  %tmp = alloca ptr, align 8
  %alloc_pool = alloca ptr, align 8
  %elm = alloca ptr, align 8
  store ptr %n, ptr %n.addr, align 8
  store ptr %value, ptr %value.addr, align 8
  %call = call ptr @get_ptr_alloc_pool()
  store ptr %call, ptr %alloc_pool, align 8
  %0 = load ptr, ptr %alloc_pool, align 8
  %slh_first = getelementptr inbounds %struct.CoroutineQSList, ptr %0, i32 0, i32 0
  %1 = load ptr, ptr %slh_first, align 8
  store ptr %1, ptr %co, align 8
  br label %for.cond

for.cond:                                         ; preds = %for.inc, %entry
  %2 = load ptr, ptr %co, align 8
  %tobool = icmp ne ptr %2, null
  br i1 %tobool, label %land.rhs, label %land.end

land.rhs:                                         ; preds = %for.cond
  %3 = load ptr, ptr %co, align 8
  %pool_next = getelementptr inbounds %struct.Coroutine, ptr %3, i32 0, i32 3
  %sle_next = getelementptr inbounds %struct.anon.1, ptr %pool_next, i32 0, i32 0
  %4 = load ptr, ptr %sle_next, align 8
  store ptr %4, ptr %tmp, align 8
  br label %land.end

land.end:                                         ; preds = %land.rhs, %for.cond
  %5 = phi i1 [ false, %for.cond ], [ true, %land.rhs ]
  br i1 %5, label %for.body, label %for.end

for.body:                                         ; preds = %land.end
  br label %do.body

do.body:                                          ; preds = %for.body
  %6 = load ptr, ptr %alloc_pool, align 8
  %slh_first1 = getelementptr inbounds %struct.CoroutineQSList, ptr %6, i32 0, i32 0
  %7 = load ptr, ptr %slh_first1, align 8
  store ptr %7, ptr %elm, align 8
  %8 = load ptr, ptr %elm, align 8
  %pool_next2 = getelementptr inbounds %struct.Coroutine, ptr %8, i32 0, i32 3
  %sle_next3 = getelementptr inbounds %struct.anon.1, ptr %pool_next2, i32 0, i32 0
  %9 = load ptr, ptr %sle_next3, align 8
  %10 = load ptr, ptr %alloc_pool, align 8
  %slh_first4 = getelementptr inbounds %struct.CoroutineQSList, ptr %10, i32 0, i32 0
  store ptr %9, ptr %slh_first4, align 8
  %11 = load ptr, ptr %elm, align 8
  %pool_next5 = getelementptr inbounds %struct.Coroutine, ptr %11, i32 0, i32 3
  %sle_next6 = getelementptr inbounds %struct.anon.1, ptr %pool_next5, i32 0, i32 0
  store ptr null, ptr %sle_next6, align 8
  br label %do.end

do.end:                                           ; preds = %do.body
  %12 = load ptr, ptr %co, align 8
  call void @qemu_coroutine_delete(ptr noundef %12)
  br label %for.inc

for.inc:                                          ; preds = %do.end
  %13 = load ptr, ptr %tmp, align 8
  store ptr %13, ptr %co, align 8
  br label %for.cond, !llvm.loop !7

for.end:                                          ; preds = %land.end
  ret void
}