; Function Attrs: nounwind sspstrong uwtable
define internal void @coroutine_pool_cleanup(ptr readnone captures(none) %n, ptr readnone captures(none) %value) #0 {
entry:
  %ptr.i = alloca ptr, align 8
  call void @llvm.lifetime.start.p0(i64 8, ptr nonnull %ptr.i)
  %0 = tail call align 8 ptr @llvm.threadlocal.address.p0(ptr align 8 @co_tls_alloc_pool)
  store ptr %0, ptr %ptr.i, align 8
  call void asm sideeffect "", "=*rm,0,~{dirflag},~{fpsr},~{flags}"(ptr nonnull elementtype(ptr) %ptr.i, ptr nonnull %0) #10, !srcloc !5
  %1 = load ptr, ptr %ptr.i, align 8
  call void @llvm.lifetime.end.p0(i64 8, ptr nonnull %ptr.i)
  %2 = load ptr, ptr %1, align 8
  %tobool.not6 = icmp eq ptr %2, null
  br i1 %tobool.not6, label %for.end, label %land.rhs

land.rhs:                                         ; preds = %entry, %land.rhs
  %co.07 = phi ptr [ %3, %land.rhs ], [ %2, %entry ]
  %pool_next = getelementptr inbounds nuw i8, ptr %co.07, i64 24
  %3 = load ptr, ptr %pool_next, align 8
  %4 = load ptr, ptr %1, align 8
  %pool_next2 = getelementptr inbounds nuw i8, ptr %4, i64 24
  %5 = load ptr, ptr %pool_next2, align 8
  store ptr %5, ptr %1, align 8
  store ptr null, ptr %pool_next2, align 8
  call void @qemu_coroutine_delete(ptr noundef nonnull %co.07) #10
  %tobool.not = icmp eq ptr %3, null
  br i1 %tobool.not, label %for.end, label %land.rhs, !llvm.loop !9

for.end:                                          ; preds = %land.rhs, %entry
  ret void
}